target datalayout = "e-m:e-p270:32:32-p271:32:32-p272:64:64-i64:64-i128:128-f80:128-n8:16:32:64-S128"
target triple = "x86_64-pc-linux-gnu"

; Function Attrs: nounwind uwtable
define void @ff_mp4_parse_es_descr(ptr noundef %0, ptr noundef %1) #0 {
  %3 = alloca ptr, align 8
  %4 = alloca ptr, align 8
  %5 = alloca i32, align 4
  %6 = alloca i32, align 4
  store ptr %0, ptr %3, align 8, !tbaa !16
  store ptr %1, ptr %4, align 8, !tbaa !20
  call void @llvm.lifetime.start.p0(i64 4, ptr %5) #6
  %7 = load ptr, ptr %4, align 8, !tbaa !20
  %8 = icmp ne ptr %7, null
  br i1 %8, label %9, label %13

9:                                                ; preds = %2
  %10 = load ptr, ptr %3, align 8, !tbaa !16
  %11 = call i32 @avio_rb16(ptr noundef %10)
  %12 = load ptr, ptr %4, align 8, !tbaa !20
  store i32 %11, ptr %12, align 4, !tbaa !9
  br label %16

13:                                               ; preds = %2
  %14 = load ptr, ptr %3, align 8, !tbaa !16
  %15 = call i32 @avio_rb16(ptr noundef %14)
  br label %16

16:                                               ; preds = %13, %9
  %17 = load ptr, ptr %3, align 8, !tbaa !16
  %18 = call i32 @avio_r8(ptr noundef %17)
  store i32 %18, ptr %5, align 4, !tbaa !9
  %19 = load i32, ptr %5, align 4, !tbaa !9
  %20 = and i32 %19, 128
  %21 = icmp ne i32 %20, 0
  br i1 %21, label %22, label %25

22:                                               ; preds = %16
  %23 = load ptr, ptr %3, align 8, !tbaa !16
  %24 = call i32 @avio_rb16(ptr noundef %23)
  br label %25

25:                                               ; preds = %22, %16
  %26 = load i32, ptr %5, align 4, !tbaa !9
  %27 = and i32 %26, 64
  %28 = icmp ne i32 %27, 0
  br i1 %28, label %29, label %36

29:                                               ; preds = %25
  call void @llvm.lifetime.start.p0(i64 4, ptr %6) #6
  %30 = load ptr, ptr %3, align 8, !tbaa !16
  %31 = call i32 @avio_r8(ptr noundef %30)
  store i32 %31, ptr %6, align 4, !tbaa !9
  %32 = load ptr, ptr %3, align 8, !tbaa !16
  %33 = load i32, ptr %6, align 4, !tbaa !9
  %34 = sext i32 %33 to i64
  %35 = call i64 @avio_skip(ptr noundef %32, i64 noundef %34)
  call void @llvm.lifetime.end.p0(i64 4, ptr %6) #6
  br label %36

36:                                               ; preds = %29, %25
  %37 = load i32, ptr %5, align 4, !tbaa !9
  %38 = and i32 %37, 32
  %39 = icmp ne i32 %38, 0
  br i1 %39, label %40, label %43

40:                                               ; preds = %36
  %41 = load ptr, ptr %3, align 8, !tbaa !16
  %42 = call i32 @avio_rb16(ptr noundef %41)
  br label %43

43:                                               ; preds = %40, %36
  call void @llvm.lifetime.end.p0(i64 4, ptr %5) #6
  ret void
}