; Function Attrs: nounwind uwtable
define void @ff_mp4_parse_es_descr(ptr noundef %0, ptr noundef writeonly captures(address_is_null) %1) local_unnamed_addr #5 {
  %.not = icmp eq ptr %1, null
  %3 = tail call i32 @avio_rb16(ptr noundef %0) #8
  br i1 %.not, label %5, label %4

4:                                                ; preds = %2
  store i32 %3, ptr %1, align 4, !tbaa !11
  br label %5

5:                                                ; preds = %2, %4
  %6 = tail call i32 @avio_r8(ptr noundef %0) #8
  %7 = and i32 %6, 128
  %.not12 = icmp eq i32 %7, 0
  br i1 %.not12, label %10, label %8

8:                                                ; preds = %5
  %9 = tail call i32 @avio_rb16(ptr noundef %0) #8
  br label %10

10:                                               ; preds = %8, %5
  %11 = and i32 %6, 64
  %.not13 = icmp eq i32 %11, 0
  br i1 %.not13, label %16, label %12

12:                                               ; preds = %10
  %13 = tail call i32 @avio_r8(ptr noundef %0) #8
  %14 = sext i32 %13 to i64
  %15 = tail call i64 @avio_skip(ptr noundef %0, i64 noundef %14) #8
  br label %16

16:                                               ; preds = %12, %10
  %17 = and i32 %6, 32
  %.not14 = icmp eq i32 %17, 0
  br i1 %.not14, label %20, label %18

18:                                               ; preds = %16
  %19 = tail call i32 @avio_rb16(ptr noundef %0) #8
  br label %20

20:                                               ; preds = %18, %16
  ret void
}